target datalayout = "e-m:e-p270:32:32-p271:32:32-p272:64:64-i64:64-i128:128-f80:128-n8:16:32:64-S128"
target triple = "x86_64-pc-linux-gnu"

%struct.archive_read = type { %struct.archive, ptr, i32, i64, i64, %struct.archive_read_client, [16 x %struct.archive_read_filter_bidder], ptr, i32, i64, i32, i32, [16 x %struct.archive_format_descriptor], ptr, ptr, ptr, %struct.anon }
%struct.archive = type { i32, i32, ptr, i32, ptr, i32, i32, ptr, %struct.archive_string, ptr, i32, i32, ptr, ptr, i64, i64, i64, i8, i64 }
%struct.archive_string = type { ptr, i64, i64 }
%struct.archive_read_client = type { ptr, ptr, ptr, ptr, ptr, ptr, i32, i32, i64, ptr }
%struct.archive_read_filter_bidder = type { ptr, ptr, ptr }
%struct.archive_format_descriptor = type { ptr, ptr, ptr, ptr, ptr, ptr, ptr, ptr, ptr, ptr, ptr }
%struct.anon = type { ptr, ptr, i32, ptr, ptr }
%struct.rar = type { i32, i64, [2 x i8], [4 x i8], i8, i8, i32, i64, i64, i64, i64, i32, ptr, ptr, i64, i64, [8 x i8], i64, i64, i64, i64, i64, i64, i64, i64, i64, i64, i64, i64, i8, i32, i32, ptr, i32, i8, i8, i64, i32, i8, ptr, i32, i32, i8, %struct.huffman_code, %struct.huffman_code, %struct.huffman_code, %struct.huffman_code, [404 x i8], %struct.lzss, i32, i32, [4 x i32], i32, i32, i8, %struct.rar_filters, i8, i8, i8, i32, %struct.CPpmd7, %struct.CPpmd7z_RangeDec, %struct.IByteIn, i32, ptr, ptr, ptr, ptr, %struct.rar_br, i32 }
%struct.huffman_code = type { ptr, i32, i32, i32, i32, i32, ptr }
%struct.lzss = type { ptr, i32, i64 }
%struct.rar_filters = type { ptr, ptr, ptr, i64, i32, i64, ptr, i64 }
%struct.CPpmd7 = type { ptr, ptr, ptr, i32, i32, i32, i32, i32, i32, i32, i32, i32, ptr, ptr, ptr, ptr, ptr, i32, [38 x i8], [128 x i8], [38 x i32], [256 x i8], [256 x i8], [256 x i8], %struct.CPpmd_See, [25 x [16 x %struct.CPpmd_See]], [128 x [64 x i16]] }
%struct.CPpmd_See = type { i16, i8, i8 }
%struct.CPpmd7z_RangeDec = type { %struct.IPpmd7_RangeDec, i32, i32, i32, i32, ptr }
%struct.IPpmd7_RangeDec = type { ptr, ptr, ptr }
%struct.IByteIn = type { ptr, ptr }
%struct.rar_br = type { i64, i32, i64, ptr }

; Function Attrs: nounwind uwtable
define internal ptr @rar_read_ahead(ptr noundef %0, i64 noundef %1, ptr noundef %2) #0 {
  %4 = alloca ptr, align 8
  %5 = alloca ptr, align 8
  %6 = alloca i64, align 8
  %7 = alloca ptr, align 8
  %8 = alloca ptr, align 8
  %9 = alloca ptr, align 8
  %10 = alloca i32, align 4
  store ptr %0, ptr %5, align 8
  store i64 %1, ptr %6, align 8
  store ptr %2, ptr %7, align 8
  %11 = load ptr, ptr %5, align 8
  %12 = getelementptr inbounds %struct.archive_read, ptr %11, i32 0, i32 13
  %13 = load ptr, ptr %12, align 8
  %14 = getelementptr inbounds %struct.archive_format_descriptor, ptr %13, i32 0, i32 0
  %15 = load ptr, ptr %14, align 8
  store ptr %15, ptr %8, align 8
  %16 = load ptr, ptr %5, align 8
  %17 = load i64, ptr %6, align 8
  %18 = load ptr, ptr %7, align 8
  %19 = call ptr @__archive_read_ahead(ptr noundef %16, i64 noundef %17, ptr noundef %18)
  store ptr %19, ptr %9, align 8
  %20 = load ptr, ptr %7, align 8
  %21 = icmp ne ptr %20, null
  br i1 %21, label %22, label %107

22:                                               ; preds = %3
  %23 = load ptr, ptr %5, align 8
  %24 = getelementptr inbounds %struct.archive_read, ptr %23, i32 0, i32 0
  %25 = getelementptr inbounds %struct.archive, ptr %24, i32 0, i32 17
  %26 = load i8, ptr %25, align 8
  %27 = sext i8 %26 to i32
  %28 = icmp ne i32 %27, 0
  br i1 %28, label %29, label %43

29:                                               ; preds = %22
  %30 = load ptr, ptr %7, align 8
  %31 = load i64, ptr %30, align 8
  %32 = load ptr, ptr %5, align 8
  %33 = getelementptr inbounds %struct.archive_read, ptr %32, i32 0, i32 0
  %34 = getelementptr inbounds %struct.archive, ptr %33, i32 0, i32 18
  %35 = load i64, ptr %34, align 8
  %36 = icmp sgt i64 %31, %35
  br i1 %36, label %37, label %43

37:                                               ; preds = %29
  %38 = load ptr, ptr %5, align 8
  %39 = getelementptr inbounds %struct.archive_read, ptr %38, i32 0, i32 0
  %40 = getelementptr inbounds %struct.archive, ptr %39, i32 0, i32 18
  %41 = load i64, ptr %40, align 8
  %42 = load ptr, ptr %7, align 8
  store i64 %41, ptr %42, align 8
  br label %43

43:                                               ; preds = %37, %29, %22
  %44 = load ptr, ptr %7, align 8
  %45 = load i64, ptr %44, align 8
  %46 = load ptr, ptr %8, align 8
  %47 = getelementptr inbounds %struct.rar, ptr %46, i32 0, i32 24
  %48 = load i64, ptr %47, align 8
  %49 = icmp sgt i64 %45, %48
  br i1 %49, label %50, label %55

50:                                               ; preds = %43
  %51 = load ptr, ptr %8, align 8
  %52 = getelementptr inbounds %struct.rar, ptr %51, i32 0, i32 24
  %53 = load i64, ptr %52, align 8
  %54 = load ptr, ptr %7, align 8
  store i64 %53, ptr %54, align 8
  br label %55

55:                                               ; preds = %50, %43
  %56 = load ptr, ptr %7, align 8
  %57 = load i64, ptr %56, align 8
  %58 = icmp slt i64 %57, 0
  br i1 %58, label %59, label %60

59:                                               ; preds = %55
  store ptr null, ptr %4, align 8
  br label %109

60:                                               ; preds = %55
  %61 = load ptr, ptr %7, align 8
  %62 = load i64, ptr %61, align 8
  %63 = icmp eq i64 %62, 0
  br i1 %63, label %64, label %105

64:                                               ; preds = %60
  %65 = load ptr, ptr %8, align 8
  %66 = getelementptr inbounds %struct.rar, ptr %65, i32 0, i32 0
  %67 = load i32, ptr %66, align 8
  %68 = and i32 %67, 1
  %69 = icmp ne i32 %68, 0
  br i1 %69, label %70, label %105

70:                                               ; preds = %64
  %71 = load ptr, ptr %8, align 8
  %72 = getelementptr inbounds %struct.rar, ptr %71, i32 0, i32 6
  %73 = load i32, ptr %72, align 8
  %74 = and i32 %73, 2
  %75 = icmp ne i32 %74, 0
  br i1 %75, label %76, label %105

76:                                               ; preds = %70
  %77 = load ptr, ptr %8, align 8
  %78 = getelementptr inbounds %struct.rar, ptr %77, i32 0, i32 42
  store i8 1, ptr %78, align 8
  %79 = load ptr, ptr %5, align 8
  %80 = load ptr, ptr %5, align 8
  %81 = getelementptr inbounds %struct.archive_read, ptr %80, i32 0, i32 1
  %82 = load ptr, ptr %81, align 8
  %83 = call i32 @archive_read_format_rar_read_header(ptr noundef %79, ptr noundef %82)
  store i32 %83, ptr %10, align 4
  %84 = load i32, ptr %10, align 4
  %85 = icmp eq i32 %84, 1
  br i1 %85, label %86, label %94

86:                                               ; preds = %76
  %87 = load ptr, ptr %8, align 8
  %88 = getelementptr inbounds %struct.rar, ptr %87, i32 0, i32 38
  store i8 1, ptr %88, align 4
  %89 = load ptr, ptr %5, align 8
  %90 = load ptr, ptr %5, align 8
  %91 = getelementptr inbounds %struct.archive_read, ptr %90, i32 0, i32 1
  %92 = load ptr, ptr %91, align 8
  %93 = call i32 @archive_read_format_rar_read_header(ptr noundef %89, ptr noundef %92)
  store i32 %93, ptr %10, align 4
  br label %94

94:                                               ; preds = %86, %76
  %95 = load ptr, ptr %8, align 8
  %96 = getelementptr inbounds %struct.rar, ptr %95, i32 0, i32 42
  store i8 0, ptr %96, align 8
  %97 = load i32, ptr %10, align 4
  %98 = icmp ne i32 %97, 0
  br i1 %98, label %99, label %100

99:                                               ; preds = %94
  store ptr null, ptr %4, align 8
  br label %109

100:                                              ; preds = %94
  %101 = load ptr, ptr %5, align 8
  %102 = load i64, ptr %6, align 8
  %103 = load ptr, ptr %7, align 8
  %104 = call ptr @rar_read_ahead(ptr noundef %101, i64 noundef %102, ptr noundef %103)
  store ptr %104, ptr %4, align 8
  br label %109

105:                                              ; preds = %70, %64, %60
  br label %106

106:                                              ; preds = %105
  br label %107

107:                                              ; preds = %106, %3
  %108 = load ptr, ptr %9, align 8
  store ptr %108, ptr %4, align 8
  br label %109

109:                                              ; preds = %107, %100, %99, %59
  %110 = load ptr, ptr %4, align 8
  ret ptr %110
}