; Function Attrs: nounwind uwtable
define internal fastcc ptr @rar_read_ahead(ptr noundef %0, i64 noundef %1, ptr noundef %2) unnamed_addr #0 {
  %4 = getelementptr inbounds nuw i8, ptr %0, i64 2072
  %.not = icmp eq ptr %2, null
  %5 = getelementptr inbounds nuw i8, ptr %0, i64 128
  %6 = getelementptr inbounds nuw i8, ptr %0, i64 136
  %7 = getelementptr inbounds nuw i8, ptr %0, i64 144
  br i1 %.not, label %tailrecurse.us, label %tailrecurse

tailrecurse.us:                                   ; preds = %3
  %8 = tail call ptr @__archive_read_ahead(ptr noundef %0, i64 noundef %1, ptr noundef null) #19
  br label %.split44

tailrecurse:                                      ; preds = %3, %44
  %9 = load ptr, ptr %4, align 8
  %10 = load ptr, ptr %9, align 8
  %11 = tail call ptr @__archive_read_ahead(ptr noundef %0, i64 noundef %1, ptr noundef nonnull %2) #19
  %12 = load i8, ptr %5, align 8
  %.not37 = icmp eq i8 %12, 0
  %.pre = load i64, ptr %2, align 8
  br i1 %.not37, label %17, label %13

13:                                               ; preds = %tailrecurse
  %14 = load i64, ptr %6, align 8
  %15 = icmp sgt i64 %.pre, %14
  br i1 %15, label %16, label %17

16:                                               ; preds = %13
  store i64 %14, ptr %2, align 8
  br label %17

17:                                               ; preds = %16, %13, %tailrecurse
  %18 = phi i64 [ %14, %16 ], [ %.pre, %13 ], [ %.pre, %tailrecurse ]
  %19 = getelementptr inbounds nuw i8, ptr %10, i64 168
  %20 = load i64, ptr %19, align 8
  %21 = icmp sgt i64 %18, %20
  br i1 %21, label %22, label %23

22:                                               ; preds = %17
  store i64 %20, ptr %2, align 8
  br label %23

23:                                               ; preds = %22, %17
  %24 = phi i64 [ %20, %22 ], [ %18, %17 ]
  %25 = icmp slt i64 %24, 0
  br i1 %25, label %.split44, label %26

26:                                               ; preds = %23
  %27 = icmp eq i64 %24, 0
  br i1 %27, label %28, label %.split44

28:                                               ; preds = %26
  %29 = load i32, ptr %10, align 8
  %30 = and i32 %29, 1
  %.not38 = icmp eq i32 %30, 0
  br i1 %.not38, label %.split44, label %31

31:                                               ; preds = %28
  %32 = getelementptr inbounds nuw i8, ptr %10, i64 24
  %33 = load i32, ptr %32, align 8
  %34 = and i32 %33, 2
  %.not39 = icmp eq i32 %34, 0
  br i1 %.not39, label %.split44, label %35

35:                                               ; preds = %31
  %36 = getelementptr inbounds nuw i8, ptr %10, i64 272
  store i8 1, ptr %36, align 8
  %37 = load ptr, ptr %7, align 8
  %38 = tail call i32 @archive_read_format_rar_read_header(ptr noundef nonnull %0, ptr noundef %37)
  %39 = icmp eq i32 %38, 1
  br i1 %39, label %40, label %44

40:                                               ; preds = %35
  %41 = getelementptr inbounds nuw i8, ptr %10, i64 252
  store i8 1, ptr %41, align 4
  %42 = load ptr, ptr %7, align 8
  %43 = tail call i32 @archive_read_format_rar_read_header(ptr noundef nonnull %0, ptr noundef %42)
  br label %44

44:                                               ; preds = %40, %35
  %.0 = phi i32 [ %43, %40 ], [ %38, %35 ]
  store i8 0, ptr %36, align 8
  %.not40 = icmp eq i32 %.0, 0
  br i1 %.not40, label %tailrecurse, label %.split44

.split44:                                         ; preds = %23, %44, %31, %28, %26, %tailrecurse.us
  %.us-phi = phi ptr [ %8, %tailrecurse.us ], [ null, %23 ], [ null, %44 ], [ %11, %31 ], [ %11, %28 ], [ %11, %26 ]
  ret ptr %.us-phi
}